target datalayout = "e-m:e-p270:32:32-p271:32:32-p272:64:64-i64:64-i128:128-f80:128-n8:16:32:64-S128"
target triple = "x86_64-pc-linux-gnu"

; Function Attrs: nounwind uwtable
define internal i64 @load_3(ptr noundef %0) #0 {
  %2 = alloca ptr, align 8
  %3 = alloca i64, align 8
  store ptr %0, ptr %2, align 8, !tbaa !6
  call void @llvm.lifetime.start.p0(i64 8, ptr %3) #5
  %4 = load ptr, ptr %2, align 8, !tbaa !6
  %5 = getelementptr inbounds i8, ptr %4, i64 0
  %6 = load i8, ptr %5, align 1, !tbaa !12
  %7 = zext i8 %6 to i64
  store i64 %7, ptr %3, align 8, !tbaa !29
  %8 = load ptr, ptr %2, align 8, !tbaa !6
  %9 = getelementptr inbounds i8, ptr %8, i64 1
  %10 = load i8, ptr %9, align 1, !tbaa !12
  %11 = zext i8 %10 to i64
  %12 = shl i64 %11, 8
  %13 = load i64, ptr %3, align 8, !tbaa !29
  %14 = or i64 %13, %12
  store i64 %14, ptr %3, align 8, !tbaa !29
  %15 = load ptr, ptr %2, align 8, !tbaa !6
  %16 = getelementptr inbounds i8, ptr %15, i64 2
  %17 = load i8, ptr %16, align 1, !tbaa !12
  %18 = zext i8 %17 to i64
  %19 = shl i64 %18, 16
  %20 = load i64, ptr %3, align 8, !tbaa !29
  %21 = or i64 %20, %19
  store i64 %21, ptr %3, align 8, !tbaa !29
  %22 = load i64, ptr %3, align 8, !tbaa !29
  call void @llvm.lifetime.end.p0(i64 8, ptr %3) #5
  ret i64 %22
}

; Function Attrs: nounwind uwtable
define internal i64 @load_4(ptr noundef %0) #0 {
  %2 = alloca ptr, align 8
  %3 = alloca i64, align 8
  store ptr %0, ptr %2, align 8, !tbaa !6
  call void @llvm.lifetime.start.p0(i64 8, ptr %3) #5
  %4 = load ptr, ptr %2, align 8, !tbaa !6
  %5 = getelementptr inbounds i8, ptr %4, i64 0
  %6 = load i8, ptr %5, align 1, !tbaa !12
  %7 = zext i8 %6 to i64
  store i64 %7, ptr %3, align 8, !tbaa !29
  %8 = load ptr, ptr %2, align 8, !tbaa !6
  %9 = getelementptr inbounds i8, ptr %8, i64 1
  %10 = load i8, ptr %9, align 1, !tbaa !12
  %11 = zext i8 %10 to i64
  %12 = shl i64 %11, 8
  %13 = load i64, ptr %3, align 8, !tbaa !29
  %14 = or i64 %13, %12
  store i64 %14, ptr %3, align 8, !tbaa !29
  %15 = load ptr, ptr %2, align 8, !tbaa !6
  %16 = getelementptr inbounds i8, ptr %15, i64 2
  %17 = load i8, ptr %16, align 1, !tbaa !12
  %18 = zext i8 %17 to i64
  %19 = shl i64 %18, 16
  %20 = load i64, ptr %3, align 8, !tbaa !29
  %21 = or i64 %20, %19
  store i64 %21, ptr %3, align 8, !tbaa !29
  %22 = load ptr, ptr %2, align 8, !tbaa !6
  %23 = getelementptr inbounds i8, ptr %22, i64 3
  %24 = load i8, ptr %23, align 1, !tbaa !12
  %25 = zext i8 %24 to i64
  %26 = shl i64 %25, 24
  %27 = load i64, ptr %3, align 8, !tbaa !29
  %28 = or i64 %27, %26
  store i64 %28, ptr %3, align 8, !tbaa !29
  %29 = load i64, ptr %3, align 8, !tbaa !29
  call void @llvm.lifetime.end.p0(i64 8, ptr %3) #5
  ret i64 %29
}

; Function Attrs: nounwind uwtable
define internal void @fe_frombytes(ptr noundef %0, ptr noundef %1) #0 {
  %3 = alloca ptr, align 8
  %4 = alloca ptr, align 8
  %5 = alloca i64, align 8
  %6 = alloca i64, align 8
  %7 = alloca i64, align 8
  %8 = alloca i64, align 8
  %9 = alloca i64, align 8
  %10 = alloca i64, align 8
  %11 = alloca i64, align 8
  %12 = alloca i64, align 8
  %13 = alloca i64, align 8
  %14 = alloca i64, align 8
  %15 = alloca i64, align 8
  %16 = alloca i64, align 8
  %17 = alloca i64, align 8
  %18 = alloca i64, align 8
  %19 = alloca i64, align 8
  %20 = alloca i64, align 8
  %21 = alloca i64, align 8
  %22 = alloca i64, align 8
  %23 = alloca i64, align 8
  %24 = alloca i64, align 8
  store ptr %0, ptr %3, align 8, !tbaa !13
  store ptr %1, ptr %4, align 8, !tbaa !6
  call void @llvm.lifetime.start.p0(i64 8, ptr %5) #5
  %25 = load ptr, ptr %4, align 8, !tbaa !6
  %26 = call i64 @load_4(ptr noundef %25)
  store i64 %26, ptr %5, align 8, !tbaa !29
  call void @llvm.lifetime.start.p0(i64 8, ptr %6) #5
  %27 = load ptr, ptr %4, align 8, !tbaa !6
  %28 = getelementptr inbounds i8, ptr %27, i64 4
  %29 = call i64 @load_3(ptr noundef %28)
  %30 = shl i64 %29, 6
  store i64 %30, ptr %6, align 8, !tbaa !29
  call void @llvm.lifetime.start.p0(i64 8, ptr %7) #5
  %31 = load ptr, ptr %4, align 8, !tbaa !6
  %32 = getelementptr inbounds i8, ptr %31, i64 7
  %33 = call i64 @load_3(ptr noundef %32)
  %34 = shl i64 %33, 5
  store i64 %34, ptr %7, align 8, !tbaa !29
  call void @llvm.lifetime.start.p0(i64 8, ptr %8) #5
  %35 = load ptr, ptr %4, align 8, !tbaa !6
  %36 = getelementptr inbounds i8, ptr %35, i64 10
  %37 = call i64 @load_3(ptr noundef %36)
  %38 = shl i64 %37, 3
  store i64 %38, ptr %8, align 8, !tbaa !29
  call void @llvm.lifetime.start.p0(i64 8, ptr %9) #5
  %39 = load ptr, ptr %4, align 8, !tbaa !6
  %40 = getelementptr inbounds i8, ptr %39, i64 13
  %41 = call i64 @load_3(ptr noundef %40)
  %42 = shl i64 %41, 2
  store i64 %42, ptr %9, align 8, !tbaa !29
  call void @llvm.lifetime.start.p0(i64 8, ptr %10) #5
  %43 = load ptr, ptr %4, align 8, !tbaa !6
  %44 = getelementptr inbounds i8, ptr %43, i64 16
  %45 = call i64 @load_4(ptr noundef %44)
  store i64 %45, ptr %10, align 8, !tbaa !29
  call void @llvm.lifetime.start.p0(i64 8, ptr %11) #5
  %46 = load ptr, ptr %4, align 8, !tbaa !6
  %47 = getelementptr inbounds i8, ptr %46, i64 20
  %48 = call i64 @load_3(ptr noundef %47)
  %49 = shl i64 %48, 7
  store i64 %49, ptr %11, align 8, !tbaa !29
  call void @llvm.lifetime.start.p0(i64 8, ptr %12) #5
  %50 = load ptr, ptr %4, align 8, !tbaa !6
  %51 = getelementptr inbounds i8, ptr %50, i64 23
  %52 = call i64 @load_3(ptr noundef %51)
  %53 = shl i64 %52, 5
  store i64 %53, ptr %12, align 8, !tbaa !29
  call void @llvm.lifetime.start.p0(i64 8, ptr %13) #5
  %54 = load ptr, ptr %4, align 8, !tbaa !6
  %55 = getelementptr inbounds i8, ptr %54, i64 26
  %56 = call i64 @load_3(ptr noundef %55)
  %57 = shl i64 %56, 4
  store i64 %57, ptr %13, align 8, !tbaa !29
  call void @llvm.lifetime.start.p0(i64 8, ptr %14) #5
  %58 = load ptr, ptr %4, align 8, !tbaa !6
  %59 = getelementptr inbounds i8, ptr %58, i64 29
  %60 = call i64 @load_3(ptr noundef %59)
  %61 = and i64 %60, 8388607
  %62 = shl i64 %61, 2
  store i64 %62, ptr %14, align 8, !tbaa !29
  call void @llvm.lifetime.start.p0(i64 8, ptr %15) #5
  call void @llvm.lifetime.start.p0(i64 8, ptr %16) #5
  call void @llvm.lifetime.start.p0(i64 8, ptr %17) #5
  call void @llvm.lifetime.start.p0(i64 8, ptr %18) #5
  call void @llvm.lifetime.start.p0(i64 8, ptr %19) #5
  call void @llvm.lifetime.start.p0(i64 8, ptr %20) #5
  call void @llvm.lifetime.start.p0(i64 8, ptr %21) #5
  call void @llvm.lifetime.start.p0(i64 8, ptr %22) #5
  call void @llvm.lifetime.start.p0(i64 8, ptr %23) #5
  call void @llvm.lifetime.start.p0(i64 8, ptr %24) #5
  %63 = load i64, ptr %14, align 8, !tbaa !29
  %64 = add nsw i64 %63, 16777216
  store i64 %64, ptr %24, align 8, !tbaa !29
  %65 = load i64, ptr %24, align 8, !tbaa !29
  %66 = ashr i64 %65, 25
  %67 = mul nsw i64 %66, 19
  %68 = load i64, ptr %5, align 8, !tbaa !29
  %69 = add nsw i64 %68, %67
  store i64 %69, ptr %5, align 8, !tbaa !29
  %70 = load i64, ptr %24, align 8, !tbaa !29
  %71 = and i64 %70, -33554432
  %72 = load i64, ptr %14, align 8, !tbaa !29
  %73 = sub nsw i64 %72, %71
  store i64 %73, ptr %14, align 8, !tbaa !29
  %74 = load i64, ptr %6, align 8, !tbaa !29
  %75 = add nsw i64 %74, 16777216
  store i64 %75, ptr %16, align 8, !tbaa !29
  %76 = load i64, ptr %16, align 8, !tbaa !29
  %77 = ashr i64 %76, 25
  %78 = load i64, ptr %7, align 8, !tbaa !29
  %79 = add nsw i64 %78, %77
  store i64 %79, ptr %7, align 8, !tbaa !29
  %80 = load i64, ptr %16, align 8, !tbaa !29
  %81 = and i64 %80, -33554432
  %82 = load i64, ptr %6, align 8, !tbaa !29
  %83 = sub nsw i64 %82, %81
  store i64 %83, ptr %6, align 8, !tbaa !29
  %84 = load i64, ptr %8, align 8, !tbaa !29
  %85 = add nsw i64 %84, 16777216
  store i64 %85, ptr %18, align 8, !tbaa !29
  %86 = load i64, ptr %18, align 8, !tbaa !29
  %87 = ashr i64 %86, 25
  %88 = load i64, ptr %9, align 8, !tbaa !29
  %89 = add nsw i64 %88, %87
  store i64 %89, ptr %9, align 8, !tbaa !29
  %90 = load i64, ptr %18, align 8, !tbaa !29
  %91 = and i64 %90, -33554432
  %92 = load i64, ptr %8, align 8, !tbaa !29
  %93 = sub nsw i64 %92, %91
  store i64 %93, ptr %8, align 8, !tbaa !29
  %94 = load i64, ptr %10, align 8, !tbaa !29
  %95 = add nsw i64 %94, 16777216
  store i64 %95, ptr %20, align 8, !tbaa !29
  %96 = load i64, ptr %20, align 8, !tbaa !29
  %97 = ashr i64 %96, 25
  %98 = load i64, ptr %11, align 8, !tbaa !29
  %99 = add nsw i64 %98, %97
  store i64 %99, ptr %11, align 8, !tbaa !29
  %100 = load i64, ptr %20, align 8, !tbaa !29
  %101 = and i64 %100, -33554432
  %102 = load i64, ptr %10, align 8, !tbaa !29
  %103 = sub nsw i64 %102, %101
  store i64 %103, ptr %10, align 8, !tbaa !29
  %104 = load i64, ptr %12, align 8, !tbaa !29
  %105 = add nsw i64 %104, 16777216
  store i64 %105, ptr %22, align 8, !tbaa !29
  %106 = load i64, ptr %22, align 8, !tbaa !29
  %107 = ashr i64 %106, 25
  %108 = load i64, ptr %13, align 8, !tbaa !29
  %109 = add nsw i64 %108, %107
  store i64 %109, ptr %13, align 8, !tbaa !29
  %110 = load i64, ptr %22, align 8, !tbaa !29
  %111 = and i64 %110, -33554432
  %112 = load i64, ptr %12, align 8, !tbaa !29
  %113 = sub nsw i64 %112, %111
  store i64 %113, ptr %12, align 8, !tbaa !29
  %114 = load i64, ptr %5, align 8, !tbaa !29
  %115 = add nsw i64 %114, 33554432
  store i64 %115, ptr %15, align 8, !tbaa !29
  %116 = load i64, ptr %15, align 8, !tbaa !29
  %117 = ashr i64 %116, 26
  %118 = load i64, ptr %6, align 8, !tbaa !29
  %119 = add nsw i64 %118, %117
  store i64 %119, ptr %6, align 8, !tbaa !29
  %120 = load i64, ptr %15, align 8, !tbaa !29
  %121 = and i64 %120, -67108864
  %122 = load i64, ptr %5, align 8, !tbaa !29
  %123 = sub nsw i64 %122, %121
  store i64 %123, ptr %5, align 8, !tbaa !29
  %124 = load i64, ptr %7, align 8, !tbaa !29
  %125 = add nsw i64 %124, 33554432
  store i64 %125, ptr %17, align 8, !tbaa !29
  %126 = load i64, ptr %17, align 8, !tbaa !29
  %127 = ashr i64 %126, 26
  %128 = load i64, ptr %8, align 8, !tbaa !29
  %129 = add nsw i64 %128, %127
  store i64 %129, ptr %8, align 8, !tbaa !29
  %130 = load i64, ptr %17, align 8, !tbaa !29
  %131 = and i64 %130, -67108864
  %132 = load i64, ptr %7, align 8, !tbaa !29
  %133 = sub nsw i64 %132, %131
  store i64 %133, ptr %7, align 8, !tbaa !29
  %134 = load i64, ptr %9, align 8, !tbaa !29
  %135 = add nsw i64 %134, 33554432
  store i64 %135, ptr %19, align 8, !tbaa !29
  %136 = load i64, ptr %19, align 8, !tbaa !29
  %137 = ashr i64 %136, 26
  %138 = load i64, ptr %10, align 8, !tbaa !29
  %139 = add nsw i64 %138, %137
  store i64 %139, ptr %10, align 8, !tbaa !29
  %140 = load i64, ptr %19, align 8, !tbaa !29
  %141 = and i64 %140, -67108864
  %142 = load i64, ptr %9, align 8, !tbaa !29
  %143 = sub nsw i64 %142, %141
  store i64 %143, ptr %9, align 8, !tbaa !29
  %144 = load i64, ptr %11, align 8, !tbaa !29
  %145 = add nsw i64 %144, 33554432
  store i64 %145, ptr %21, align 8, !tbaa !29
  %146 = load i64, ptr %21, align 8, !tbaa !29
  %147 = ashr i64 %146, 26
  %148 = load i64, ptr %12, align 8, !tbaa !29
  %149 = add nsw i64 %148, %147
  store i64 %149, ptr %12, align 8, !tbaa !29
  %150 = load i64, ptr %21, align 8, !tbaa !29
  %151 = and i64 %150, -67108864
  %152 = load i64, ptr %11, align 8, !tbaa !29
  %153 = sub nsw i64 %152, %151
  store i64 %153, ptr %11, align 8, !tbaa !29
  %154 = load i64, ptr %13, align 8, !tbaa !29
  %155 = add nsw i64 %154, 33554432
  store i64 %155, ptr %23, align 8, !tbaa !29
  %156 = load i64, ptr %23, align 8, !tbaa !29
  %157 = ashr i64 %156, 26
  %158 = load i64, ptr %14, align 8, !tbaa !29
  %159 = add nsw i64 %158, %157
  store i64 %159, ptr %14, align 8, !tbaa !29
  %160 = load i64, ptr %23, align 8, !tbaa !29
  %161 = and i64 %160, -67108864
  %162 = load i64, ptr %13, align 8, !tbaa !29
  %163 = sub nsw i64 %162, %161
  store i64 %163, ptr %13, align 8, !tbaa !29
  %164 = load i64, ptr %5, align 8, !tbaa !29
  %165 = trunc i64 %164 to i32
  %166 = load ptr, ptr %3, align 8, !tbaa !13
  %167 = getelementptr inbounds i32, ptr %166, i64 0
  store i32 %165, ptr %167, align 4, !tbaa !15
  %168 = load i64, ptr %6, align 8, !tbaa !29
  %169 = trunc i64 %168 to i32
  %170 = load ptr, ptr %3, align 8, !tbaa !13
  %171 = getelementptr inbounds i32, ptr %170, i64 1
  store i32 %169, ptr %171, align 4, !tbaa !15
  %172 = load i64, ptr %7, align 8, !tbaa !29
  %173 = trunc i64 %172 to i32
  %174 = load ptr, ptr %3, align 8, !tbaa !13
  %175 = getelementptr inbounds i32, ptr %174, i64 2
  store i32 %173, ptr %175, align 4, !tbaa !15
  %176 = load i64, ptr %8, align 8, !tbaa !29
  %177 = trunc i64 %176 to i32
  %178 = load ptr, ptr %3, align 8, !tbaa !13
  %179 = getelementptr inbounds i32, ptr %178, i64 3
  store i32 %177, ptr %179, align 4, !tbaa !15
  %180 = load i64, ptr %9, align 8, !tbaa !29
  %181 = trunc i64 %180 to i32
  %182 = load ptr, ptr %3, align 8, !tbaa !13
  %183 = getelementptr inbounds i32, ptr %182, i64 4
  store i32 %181, ptr %183, align 4, !tbaa !15
  %184 = load i64, ptr %10, align 8, !tbaa !29
  %185 = trunc i64 %184 to i32
  %186 = load ptr, ptr %3, align 8, !tbaa !13
  %187 = getelementptr inbounds i32, ptr %186, i64 5
  store i32 %185, ptr %187, align 4, !tbaa !15
  %188 = load i64, ptr %11, align 8, !tbaa !29
  %189 = trunc i64 %188 to i32
  %190 = load ptr, ptr %3, align 8, !tbaa !13
  %191 = getelementptr inbounds i32, ptr %190, i64 6
  store i32 %189, ptr %191, align 4, !tbaa !15
  %192 = load i64, ptr %12, align 8, !tbaa !29
  %193 = trunc i64 %192 to i32
  %194 = load ptr, ptr %3, align 8, !tbaa !13
  %195 = getelementptr inbounds i32, ptr %194, i64 7
  store i32 %193, ptr %195, align 4, !tbaa !15
  %196 = load i64, ptr %13, align 8, !tbaa !29
  %197 = trunc i64 %196 to i32
  %198 = load ptr, ptr %3, align 8, !tbaa !13
  %199 = getelementptr inbounds i32, ptr %198, i64 8
  store i32 %197, ptr %199, align 4, !tbaa !15
  %200 = load i64, ptr %14, align 8, !tbaa !29
  %201 = trunc i64 %200 to i32
  %202 = load ptr, ptr %3, align 8, !tbaa !13
  %203 = getelementptr inbounds i32, ptr %202, i64 9
  store i32 %201, ptr %203, align 4, !tbaa !15
  call void @llvm.lifetime.end.p0(i64 8, ptr %24) #5
  call void @llvm.lifetime.end.p0(i64 8, ptr %23) #5
  call void @llvm.lifetime.end.p0(i64 8, ptr %22) #5
  call void @llvm.lifetime.end.p0(i64 8, ptr %21) #5
  call void @llvm.lifetime.end.p0(i64 8, ptr %20) #5
  call void @llvm.lifetime.end.p0(i64 8, ptr %19) #5
  call void @llvm.lifetime.end.p0(i64 8, ptr %18) #5
  call void @llvm.lifetime.end.p0(i64 8, ptr %17) #5
  call void @llvm.lifetime.end.p0(i64 8, ptr %16) #5
  call void @llvm.lifetime.end.p0(i64 8, ptr %15) #5
  call void @llvm.lifetime.end.p0(i64 8, ptr %14) #5
  call void @llvm.lifetime.end.p0(i64 8, ptr %13) #5
  call void @llvm.lifetime.end.p0(i64 8, ptr %12) #5
  call void @llvm.lifetime.end.p0(i64 8, ptr %11) #5
  call void @llvm.lifetime.end.p0(i64 8, ptr %10) #5
  call void @llvm.lifetime.end.p0(i64 8, ptr %9) #5
  call void @llvm.lifetime.end.p0(i64 8, ptr %8) #5
  call void @llvm.lifetime.end.p0(i64 8, ptr %7) #5
  call void @llvm.lifetime.end.p0(i64 8, ptr %6) #5
  call void @llvm.lifetime.end.p0(i64 8, ptr %5) #5
  ret void
}