; Function Attrs: mustprogress nofree norecurse nosync nounwind willreturn memory(argmem: readwrite) uwtable
define internal fastcc void @fe_frombytes(ptr noundef writeonly captures(none) initializes((0, 40)) %0, ptr noundef readonly captures(none) %1) unnamed_addr #2 {
  %3 = load i32, ptr %1, align 1
  %4 = zext i32 %3 to i64
  %5 = getelementptr inbounds nuw i8, ptr %1, i64 4
  %6 = load i16, ptr %5, align 1
  %7 = zext i16 %6 to i64
  %8 = getelementptr inbounds nuw i8, ptr %1, i64 6
  %9 = load i8, ptr %8, align 1, !tbaa !6
  %10 = zext i8 %9 to i64
  %11 = shl nuw nsw i64 %10, 22
  %12 = shl nuw nsw i64 %7, 6
  %13 = or disjoint i64 %11, %12
  %14 = getelementptr inbounds nuw i8, ptr %1, i64 7
  %15 = load i16, ptr %14, align 1
  %16 = zext i16 %15 to i64
  %17 = getelementptr inbounds nuw i8, ptr %1, i64 9
  %18 = load i8, ptr %17, align 1, !tbaa !6
  %19 = zext i8 %18 to i64
  %20 = shl nuw nsw i64 %19, 21
  %21 = shl nuw nsw i64 %16, 5
  %22 = or disjoint i64 %20, %21
  %23 = getelementptr inbounds nuw i8, ptr %1, i64 10
  %24 = load i16, ptr %23, align 1
  %25 = zext i16 %24 to i64
  %26 = getelementptr inbounds nuw i8, ptr %1, i64 12
  %27 = load i8, ptr %26, align 1, !tbaa !6
  %28 = zext i8 %27 to i64
  %29 = shl nuw nsw i64 %28, 19
  %30 = shl nuw nsw i64 %25, 3
  %31 = or disjoint i64 %29, %30
  %32 = getelementptr inbounds nuw i8, ptr %1, i64 13
  %33 = load i16, ptr %32, align 1
  %34 = zext i16 %33 to i64
  %35 = getelementptr inbounds nuw i8, ptr %1, i64 15
  %36 = load i8, ptr %35, align 1, !tbaa !6
  %37 = zext i8 %36 to i64
  %38 = shl nuw nsw i64 %37, 18
  %39 = shl nuw nsw i64 %34, 2
  %40 = or disjoint i64 %38, %39
  %41 = getelementptr inbounds nuw i8, ptr %1, i64 16
  %42 = load i32, ptr %41, align 1
  %43 = zext i32 %42 to i64
  %44 = getelementptr inbounds nuw i8, ptr %1, i64 20
  %45 = load i16, ptr %44, align 1
  %46 = zext i16 %45 to i64
  %47 = getelementptr inbounds nuw i8, ptr %1, i64 22
  %48 = load i8, ptr %47, align 1, !tbaa !6
  %49 = zext i8 %48 to i64
  %50 = shl nuw nsw i64 %49, 23
  %51 = shl nuw nsw i64 %46, 7
  %52 = or disjoint i64 %50, %51
  %53 = getelementptr inbounds nuw i8, ptr %1, i64 23
  %54 = load i16, ptr %53, align 1
  %55 = zext i16 %54 to i64
  %56 = getelementptr inbounds nuw i8, ptr %1, i64 25
  %57 = load i8, ptr %56, align 1, !tbaa !6
  %58 = zext i8 %57 to i64
  %59 = shl nuw nsw i64 %58, 21
  %60 = shl nuw nsw i64 %55, 5
  %61 = or disjoint i64 %59, %60
  %62 = getelementptr inbounds nuw i8, ptr %1, i64 26
  %63 = load i16, ptr %62, align 1
  %64 = zext i16 %63 to i64
  %65 = getelementptr inbounds nuw i8, ptr %1, i64 28
  %66 = load i8, ptr %65, align 1, !tbaa !6
  %67 = zext i8 %66 to i64
  %68 = shl nuw nsw i64 %67, 20
  %69 = shl nuw nsw i64 %64, 4
  %70 = or disjoint i64 %68, %69
  %71 = getelementptr inbounds nuw i8, ptr %1, i64 29
  %72 = load i16, ptr %71, align 1
  %73 = zext i16 %72 to i64
  %74 = getelementptr inbounds nuw i8, ptr %1, i64 31
  %75 = load i8, ptr %74, align 1, !tbaa !6
  %76 = zext i8 %75 to i64
  %77 = shl nuw nsw i64 %76, 18
  %78 = shl nuw nsw i64 %73, 2
  %.masked = and i64 %77, 33292288
  %79 = or disjoint i64 %.masked, %78
  %80 = add nuw nsw i64 %79, 16777216
  %81 = lshr i64 %80, 25
  %82 = mul nuw nsw i64 %81, 19
  %83 = add nuw nsw i64 %82, %4
  %84 = and i64 %80, 33554432
  %85 = add nuw nsw i64 %13, 16777216
  %86 = lshr i64 %85, 25
  %87 = add nuw nsw i64 %22, %86
  %88 = and i64 %85, 2113929216
  %89 = sub nsw i64 %13, %88
  %90 = add nuw nsw i64 %31, 16777216
  %91 = lshr i64 %90, 25
  %92 = add nuw nsw i64 %40, %91
  %93 = and i64 %90, 234881024
  %94 = add nuw nsw i64 %43, 16777216
  %95 = lshr i64 %94, 25
  %96 = add nuw nsw i64 %52, %95
  %97 = and i64 %94, 4261412864
  %98 = sub nsw i64 %43, %97
  %99 = add nuw nsw i64 %61, 16777216
  %100 = lshr i64 %99, 25
  %101 = add nuw nsw i64 %70, %100
  %102 = and i64 %99, 1040187392
  %103 = add nuw nsw i64 %83, 33554432
  %104 = lshr i64 %103, 26
  %105 = add nsw i64 %89, %104
  %106 = and i64 %103, 4227858432
  %107 = sub nsw i64 %83, %106
  %108 = add nuw nsw i64 %87, 33554432
  %109 = lshr i64 %108, 26
  %110 = add nuw nsw i64 %109, %31
  %111 = sub nsw i64 %110, %93
  %112 = and i64 %108, 4227858432
  %113 = sub nsw i64 %87, %112
  %114 = add nuw nsw i64 %92, 33554432
  %115 = lshr i64 %114, 26
  %116 = add nsw i64 %98, %115
  %117 = and i64 %114, 4227858432
  %118 = sub nsw i64 %92, %117
  %119 = add nuw nsw i64 %96, 33554432
  %120 = lshr i64 %119, 26
  %121 = add nuw nsw i64 %120, %61
  %122 = sub nsw i64 %121, %102
  %123 = and i64 %119, 4227858432
  %124 = sub nsw i64 %96, %123
  %125 = add nuw nsw i64 %101, 33554432
  %126 = lshr i64 %125, 26
  %127 = add nuw nsw i64 %126, %79
  %128 = sub nsw i64 %127, %84
  %129 = and i64 %125, 4227858432
  %130 = sub nsw i64 %101, %129
  %131 = trunc i64 %107 to i32
  store i32 %131, ptr %0, align 4, !tbaa !18
  %132 = trunc nsw i64 %105 to i32
  %133 = getelementptr inbounds nuw i8, ptr %0, i64 4
  store i32 %132, ptr %133, align 4, !tbaa !18
  %134 = trunc nsw i64 %113 to i32
  %135 = getelementptr inbounds nuw i8, ptr %0, i64 8
  store i32 %134, ptr %135, align 4, !tbaa !18
  %136 = trunc nsw i64 %111 to i32
  %137 = getelementptr inbounds nuw i8, ptr %0, i64 12
  store i32 %136, ptr %137, align 4, !tbaa !18
  %138 = trunc nsw i64 %118 to i32
  %139 = getelementptr inbounds nuw i8, ptr %0, i64 16
  store i32 %138, ptr %139, align 4, !tbaa !18
  %140 = trunc i64 %116 to i32
  %141 = getelementptr inbounds nuw i8, ptr %0, i64 20
  store i32 %140, ptr %141, align 4, !tbaa !18
  %142 = trunc i64 %124 to i32
  %143 = getelementptr inbounds nuw i8, ptr %0, i64 24
  store i32 %142, ptr %143, align 4, !tbaa !18
  %144 = trunc nsw i64 %122 to i32
  %145 = getelementptr inbounds nuw i8, ptr %0, i64 28
  store i32 %144, ptr %145, align 4, !tbaa !18
  %146 = trunc nsw i64 %130 to i32
  %147 = getelementptr inbounds nuw i8, ptr %0, i64 32
  store i32 %146, ptr %147, align 4, !tbaa !18
  %148 = trunc nsw i64 %128 to i32
  %149 = getelementptr inbounds nuw i8, ptr %0, i64 36
  store i32 %148, ptr %149, align 4, !tbaa !18
  ret void
}